; Function Attrs: mustprogress nounwind uwtable
define dso_local noundef double @_ZN4node6timers11BindingData15GetLibuvNowImplEPS1_(ptr nocapture noundef readonly %data) local_unnamed_addr #3 align 2 {
entry:
  %realm_.i = getelementptr inbounds i8, ptr %data, i64 16
  %0 = load ptr, ptr %realm_.i, align 8
  %env_.i.i = getelementptr inbounds i8, ptr %0, i64 176
  %1 = load ptr, ptr %env_.i.i, align 8
  %call1 = tail call noundef i64 @_ZN4node11Environment12GetNowUint64Ev(ptr noundef nonnull align 8 dereferenceable(2872) %1) #15
  %conv = uitofp i64 %call1 to double
  ret double %conv
}